target datalayout = "e-m:e-p270:32:32-p271:32:32-p272:64:64-i64:64-i128:128-f80:128-n8:16:32:64-S128"
target triple = "x86_64-pc-linux-gnu"

%"struct.dap::VariablePresentationHint" = type { %"class.dap::optional", %"class.dap::optional.0", %"class.dap::optional.5", [6 x i8], %"class.dap::optional.0" }
%"class.dap::optional" = type <{ %"class.std::vector", i8, [7 x i8] }>
%"class.std::vector" = type { %"struct.std::_Vector_base" }
%"struct.std::_Vector_base" = type { %"struct.std::_Vector_base<std::__cxx11::basic_string<char>, std::allocator<std::__cxx11::basic_string<char>>>::_Vector_impl" }
%"struct.std::_Vector_base<std::__cxx11::basic_string<char>, std::allocator<std::__cxx11::basic_string<char>>>::_Vector_impl" = type { %"struct.std::_Vector_base<std::__cxx11::basic_string<char>, std::allocator<std::__cxx11::basic_string<char>>>::_Vector_impl_data" }
%"struct.std::_Vector_base<std::__cxx11::basic_string<char>, std::allocator<std::__cxx11::basic_string<char>>>::_Vector_impl_data" = type { ptr, ptr, ptr }
%"class.dap::optional.5" = type { %"class.dap::boolean", i8 }
%"class.dap::boolean" = type { i8 }
%"class.dap::optional.0" = type <{ %"class.std::__cxx11::basic_string", i8, [7 x i8] }>
%"class.std::__cxx11::basic_string" = type { %"struct.std::__cxx11::basic_string<char>::_Alloc_hider", i64, %union.anon }
%"struct.std::__cxx11::basic_string<char>::_Alloc_hider" = type { ptr }
%union.anon = type { i64, [8 x i8] }
%"struct.dap::Variable" = type { %"class.dap::optional.0", %"class.dap::optional.32", %"class.dap::optional.0", %"class.std::__cxx11::basic_string", %"class.dap::optional.32", %"class.dap::optional.34", %"class.dap::optional.0", %"class.std::__cxx11::basic_string", %"class.dap::integer" }
%"class.dap::optional.32" = type <{ %"class.dap::integer", i8, [7 x i8] }>
%"class.dap::optional.34" = type { %"struct.dap::VariablePresentationHint", i8, [7 x i8] }
%"class.dap::integer" = type { i64 }
%"class.__gnu_cxx::__normal_iterator.36" = type { ptr }
%class.anon.37 = type { i8 }
%"struct.__gnu_cxx::__ops::_Val_comp_iter" = type { %class.anon.37 }

; Function Attrs: mustprogress nounwind uwtable
define linkonce_odr dso_local noundef zeroext i1 @_ZStltIcSt11char_traitsIcESaIcEEbRKNSt7__cxx1112basic_stringIT_T0_T1_EESA_(ptr noundef nonnull align 8 dereferenceable(32) %0, ptr noundef nonnull align 8 dereferenceable(32) %1) #2 comdat personality ptr @__gxx_personality_v0 {
  %3 = alloca ptr, align 8
  %4 = alloca ptr, align 8
  store ptr %0, ptr %3, align 8
  store ptr %1, ptr %4, align 8
  %5 = load ptr, ptr %3, align 8
  %6 = load ptr, ptr %4, align 8
  %7 = invoke noundef i32 @_ZNKSt7__cxx1112basic_stringIcSt11char_traitsIcESaIcEE7compareERKS4_(ptr noundef nonnull align 8 dereferenceable(32) %5, ptr noundef nonnull align 8 dereferenceable(32) %6)
          to label %8 unwind label %10

8:                                                ; preds = %2
  %9 = icmp slt i32 %7, 0
  ret i1 %9

10:                                               ; preds = %2
  %11 = landingpad { ptr, i32 }
          catch ptr null
  %12 = extractvalue { ptr, i32 } %11, 0
  call void @__clang_call_terminate(ptr %12) #14
  unreachable
}

; Function Attrs: mustprogress nounwind uwtable
define linkonce_odr dso_local noundef nonnull align 8 dereferenceable(121) ptr @_ZN3dap8optionalINS_24VariablePresentationHintEEaSEOS2_(ptr noundef nonnull align 8 dereferenceable(121) %0, ptr noundef nonnull align 8 dereferenceable(121) %1) #2 comdat align 2 {
  %3 = alloca ptr, align 8
  %4 = alloca ptr, align 8
  store ptr %0, ptr %3, align 8
  store ptr %1, ptr %4, align 8
  %5 = load ptr, ptr %3, align 8
  %6 = load ptr, ptr %4, align 8
  %7 = getelementptr inbounds %"class.dap::optional.34", ptr %6, i32 0, i32 0
  %8 = getelementptr inbounds %"class.dap::optional.34", ptr %5, i32 0, i32 0
  %9 = call noundef nonnull align 8 dereferenceable(120) ptr @_ZN3dap24VariablePresentationHintaSEOS0_(ptr noundef nonnull align 8 dereferenceable(120) %8, ptr noundef nonnull align 8 dereferenceable(120) %7) #4
  %10 = load ptr, ptr %4, align 8
  %11 = getelementptr inbounds %"class.dap::optional.34", ptr %10, i32 0, i32 1
  %12 = load i8, ptr %11, align 8
  %13 = trunc i8 %12 to i1
  %14 = getelementptr inbounds %"class.dap::optional.34", ptr %5, i32 0, i32 1
  %15 = zext i1 %13 to i8
  store i8 %15, ptr %14, align 8
  ret ptr %5
}

; Function Attrs: mustprogress nounwind uwtable
define linkonce_odr dso_local noundef nonnull align 8 dereferenceable(9) ptr @_ZN3dap8optionalINS_7integerEEaSEOS2_(ptr noundef nonnull align 8 dereferenceable(9) %0, ptr noundef nonnull align 8 dereferenceable(9) %1) #2 comdat align 2 {
  %3 = alloca ptr, align 8
  %4 = alloca ptr, align 8
  store ptr %0, ptr %3, align 8
  store ptr %1, ptr %4, align 8
  %5 = load ptr, ptr %3, align 8
  %6 = load ptr, ptr %4, align 8
  %7 = getelementptr inbounds %"class.dap::optional.32", ptr %6, i32 0, i32 0
  %8 = getelementptr inbounds %"class.dap::optional.32", ptr %5, i32 0, i32 0
  call void @llvm.memcpy.p0.p0.i64(ptr align 8 %8, ptr align 8 %7, i64 8, i1 false)
  %9 = load ptr, ptr %4, align 8
  %10 = getelementptr inbounds %"class.dap::optional.32", ptr %9, i32 0, i32 1
  %11 = load i8, ptr %10, align 8
  %12 = trunc i8 %11 to i1
  %13 = getelementptr inbounds %"class.dap::optional.32", ptr %5, i32 0, i32 1
  %14 = zext i1 %12 to i8
  store i8 %14, ptr %13, align 8
  ret ptr %5
}

; Function Attrs: mustprogress nounwind uwtable
define linkonce_odr dso_local noundef nonnull align 8 dereferenceable(33) ptr @_ZN3dap8optionalINSt7__cxx1112basic_stringIcSt11char_traitsIcESaIcEEEEaSEOS7_(ptr noundef nonnull align 8 dereferenceable(33) %0, ptr noundef nonnull align 8 dereferenceable(33) %1) #2 comdat align 2 {
  %3 = alloca ptr, align 8
  %4 = alloca ptr, align 8
  store ptr %0, ptr %3, align 8
  store ptr %1, ptr %4, align 8
  %5 = load ptr, ptr %3, align 8
  %6 = load ptr, ptr %4, align 8
  %7 = getelementptr inbounds %"class.dap::optional.0", ptr %6, i32 0, i32 0
  %8 = getelementptr inbounds %"class.dap::optional.0", ptr %5, i32 0, i32 0
  %9 = call noundef nonnull align 8 dereferenceable(32) ptr @_ZNSt7__cxx1112basic_stringIcSt11char_traitsIcESaIcEEaSEOS4_(ptr noundef nonnull align 8 dereferenceable(32) %8, ptr noundef nonnull align 8 dereferenceable(32) %7) #4
  %10 = load ptr, ptr %4, align 8
  %11 = getelementptr inbounds %"class.dap::optional.0", ptr %10, i32 0, i32 1
  %12 = load i8, ptr %11, align 8
  %13 = trunc i8 %12 to i1
  %14 = getelementptr inbounds %"class.dap::optional.0", ptr %5, i32 0, i32 1
  %15 = zext i1 %13 to i8
  store i8 %15, ptr %14, align 8
  ret ptr %5
}

; Function Attrs: mustprogress nounwind uwtable
define internal noundef zeroext i1 @"_ZZN10cmDebugger19cmDebuggerVariables22HandleVariablesRequestEvENK3$_0clERKN3dap8VariableES5_"(ptr noundef nonnull align 1 dereferenceable(1) %0, ptr noundef nonnull align 8 dereferenceable(352) %1, ptr noundef nonnull align 8 dereferenceable(352) %2) #2 align 2 {
  %4 = alloca ptr, align 8
  %5 = alloca ptr, align 8
  %6 = alloca ptr, align 8
  store ptr %0, ptr %4, align 8
  store ptr %1, ptr %5, align 8
  store ptr %2, ptr %6, align 8
  %7 = load ptr, ptr %5, align 8
  %8 = getelementptr inbounds %"struct.dap::Variable", ptr %7, i32 0, i32 3
  %9 = load ptr, ptr %6, align 8
  %10 = getelementptr inbounds %"struct.dap::Variable", ptr %9, i32 0, i32 3
  %11 = call noundef zeroext i1 @_ZStltIcSt11char_traitsIcESaIcEEbRKNSt7__cxx1112basic_stringIT_T0_T1_EESA_(ptr noundef nonnull align 8 dereferenceable(32) %8, ptr noundef nonnull align 8 dereferenceable(32) %10) #4
  ret i1 %11
}

; Function Attrs: mustprogress nounwind uwtable
define linkonce_odr dso_local noundef nonnull align 8 dereferenceable(352) ptr @_ZN3dap8VariableaSEOS0_(ptr noundef nonnull align 8 dereferenceable(352) %0, ptr noundef nonnull align 8 dereferenceable(352) %1) #2 comdat align 2 {
  %3 = alloca ptr, align 8
  %4 = alloca ptr, align 8
  store ptr %0, ptr %3, align 8
  store ptr %1, ptr %4, align 8
  %5 = load ptr, ptr %3, align 8
  %6 = getelementptr inbounds %"struct.dap::Variable", ptr %5, i32 0, i32 0
  %7 = load ptr, ptr %4, align 8
  %8 = getelementptr inbounds %"struct.dap::Variable", ptr %7, i32 0, i32 0
  %9 = call noundef nonnull align 8 dereferenceable(33) ptr @_ZN3dap8optionalINSt7__cxx1112basic_stringIcSt11char_traitsIcESaIcEEEEaSEOS7_(ptr noundef nonnull align 8 dereferenceable(33) %6, ptr noundef nonnull align 8 dereferenceable(33) %8) #4
  %10 = getelementptr inbounds %"struct.dap::Variable", ptr %5, i32 0, i32 1
  %11 = load ptr, ptr %4, align 8
  %12 = getelementptr inbounds %"struct.dap::Variable", ptr %11, i32 0, i32 1
  %13 = call noundef nonnull align 8 dereferenceable(9) ptr @_ZN3dap8optionalINS_7integerEEaSEOS2_(ptr noundef nonnull align 8 dereferenceable(9) %10, ptr noundef nonnull align 8 dereferenceable(9) %12) #4
  %14 = getelementptr inbounds %"struct.dap::Variable", ptr %5, i32 0, i32 2
  %15 = load ptr, ptr %4, align 8
  %16 = getelementptr inbounds %"struct.dap::Variable", ptr %15, i32 0, i32 2
  %17 = call noundef nonnull align 8 dereferenceable(33) ptr @_ZN3dap8optionalINSt7__cxx1112basic_stringIcSt11char_traitsIcESaIcEEEEaSEOS7_(ptr noundef nonnull align 8 dereferenceable(33) %14, ptr noundef nonnull align 8 dereferenceable(33) %16) #4
  %18 = getelementptr inbounds %"struct.dap::Variable", ptr %5, i32 0, i32 3
  %19 = load ptr, ptr %4, align 8
  %20 = getelementptr inbounds %"struct.dap::Variable", ptr %19, i32 0, i32 3
  %21 = call noundef nonnull align 8 dereferenceable(32) ptr @_ZNSt7__cxx1112basic_stringIcSt11char_traitsIcESaIcEEaSEOS4_(ptr noundef nonnull align 8 dereferenceable(32) %18, ptr noundef nonnull align 8 dereferenceable(32) %20) #4
  %22 = getelementptr inbounds %"struct.dap::Variable", ptr %5, i32 0, i32 4
  %23 = load ptr, ptr %4, align 8
  %24 = getelementptr inbounds %"struct.dap::Variable", ptr %23, i32 0, i32 4
  %25 = call noundef nonnull align 8 dereferenceable(9) ptr @_ZN3dap8optionalINS_7integerEEaSEOS2_(ptr noundef nonnull align 8 dereferenceable(9) %22, ptr noundef nonnull align 8 dereferenceable(9) %24) #4
  %26 = getelementptr inbounds %"struct.dap::Variable", ptr %5, i32 0, i32 5
  %27 = load ptr, ptr %4, align 8
  %28 = getelementptr inbounds %"struct.dap::Variable", ptr %27, i32 0, i32 5
  %29 = call noundef nonnull align 8 dereferenceable(121) ptr @_ZN3dap8optionalINS_24VariablePresentationHintEEaSEOS2_(ptr noundef nonnull align 8 dereferenceable(121) %26, ptr noundef nonnull align 8 dereferenceable(121) %28) #4
  %30 = getelementptr inbounds %"struct.dap::Variable", ptr %5, i32 0, i32 6
  %31 = load ptr, ptr %4, align 8
  %32 = getelementptr inbounds %"struct.dap::Variable", ptr %31, i32 0, i32 6
  %33 = call noundef nonnull align 8 dereferenceable(33) ptr @_ZN3dap8optionalINSt7__cxx1112basic_stringIcSt11char_traitsIcESaIcEEEEaSEOS7_(ptr noundef nonnull align 8 dereferenceable(33) %30, ptr noundef nonnull align 8 dereferenceable(33) %32) #4
  %34 = getelementptr inbounds %"struct.dap::Variable", ptr %5, i32 0, i32 7
  %35 = load ptr, ptr %4, align 8
  %36 = getelementptr inbounds %"struct.dap::Variable", ptr %35, i32 0, i32 7
  %37 = call noundef nonnull align 8 dereferenceable(32) ptr @_ZNSt7__cxx1112basic_stringIcSt11char_traitsIcESaIcEEaSEOS4_(ptr noundef nonnull align 8 dereferenceable(32) %34, ptr noundef nonnull align 8 dereferenceable(32) %36) #4
  %38 = getelementptr inbounds %"struct.dap::Variable", ptr %5, i32 0, i32 8
  %39 = load ptr, ptr %4, align 8
  %40 = getelementptr inbounds %"struct.dap::Variable", ptr %39, i32 0, i32 8
  call void @llvm.memcpy.p0.p0.i64(ptr align 8 %38, ptr align 8 %40, i64 8, i1 false)
  ret ptr %5
}

; Function Attrs: mustprogress nounwind uwtable
define internal noundef zeroext i1 @"_ZN9__gnu_cxx5__ops14_Val_comp_iterIZN10cmDebugger19cmDebuggerVariables22HandleVariablesRequestEvE3$_0EclIN3dap8VariableENS_17__normal_iteratorIPS8_St6vectorIS8_SaIS8_EEEEEEbRT_T0_"(ptr noundef nonnull align 1 dereferenceable(1) %0, ptr noundef nonnull align 8 dereferenceable(352) %1, ptr %2) #2 align 2 {
  %4 = alloca %"class.__gnu_cxx::__normal_iterator.36", align 8
  %5 = alloca ptr, align 8
  %6 = alloca ptr, align 8
  %7 = getelementptr inbounds %"class.__gnu_cxx::__normal_iterator.36", ptr %4, i32 0, i32 0
  store ptr %2, ptr %7, align 8
  store ptr %0, ptr %5, align 8
  store ptr %1, ptr %6, align 8
  %8 = load ptr, ptr %5, align 8
  %9 = getelementptr inbounds %"struct.__gnu_cxx::__ops::_Val_comp_iter", ptr %8, i32 0, i32 0
  %10 = load ptr, ptr %6, align 8
  %11 = call noundef nonnull align 8 dereferenceable(352) ptr @_ZNK9__gnu_cxx17__normal_iteratorIPN3dap8VariableESt6vectorIS2_SaIS2_EEEdeEv(ptr noundef nonnull align 8 dereferenceable(8) %4) #4
  %12 = call noundef zeroext i1 @"_ZZN10cmDebugger19cmDebuggerVariables22HandleVariablesRequestEvENK3$_0clERKN3dap8VariableES5_"(ptr noundef nonnull align 1 dereferenceable(1) %9, ptr noundef nonnull align 8 dereferenceable(352) %10, ptr noundef nonnull align 8 dereferenceable(352) %11)
  ret i1 %12
}

; Function Attrs: mustprogress nounwind uwtable
define linkonce_odr dso_local noundef nonnull align 8 dereferenceable(8) ptr @_ZN9__gnu_cxx17__normal_iteratorIPN3dap8VariableESt6vectorIS2_SaIS2_EEEmmEv(ptr noundef nonnull align 8 dereferenceable(8) %0) #2 comdat align 2 {
  %2 = alloca ptr, align 8
  store ptr %0, ptr %2, align 8
  %3 = load ptr, ptr %2, align 8
  %4 = getelementptr inbounds %"class.__gnu_cxx::__normal_iterator.36", ptr %3, i32 0, i32 0
  %5 = load ptr, ptr %4, align 8
  %6 = getelementptr inbounds %"struct.dap::Variable", ptr %5, i32 -1
  store ptr %6, ptr %4, align 8
  ret ptr %3
}

; Function Attrs: mustprogress nounwind uwtable
define linkonce_odr dso_local noundef nonnull align 8 dereferenceable(352) ptr @_ZNK9__gnu_cxx17__normal_iteratorIPN3dap8VariableESt6vectorIS2_SaIS2_EEEdeEv(ptr noundef nonnull align 8 dereferenceable(8) %0) #2 comdat align 2 {
  %2 = alloca ptr, align 8
  store ptr %0, ptr %2, align 8
  %3 = load ptr, ptr %2, align 8
  %4 = getelementptr inbounds %"class.__gnu_cxx::__normal_iterator.36", ptr %3, i32 0, i32 0
  %5 = load ptr, ptr %4, align 8
  ret ptr %5
}

; Function Attrs: mustprogress uwtable
define internal void @"_ZSt25__unguarded_linear_insertIN9__gnu_cxx17__normal_iteratorIPN3dap8VariableESt6vectorIS3_SaIS3_EEEENS0_5__ops14_Val_comp_iterIZN10cmDebugger19cmDebuggerVariables22HandleVariablesRequestEvE3$_0EEEvT_T0_"(ptr %0) #3 personality ptr @__gxx_personality_v0 {
  %2 = alloca %"class.__gnu_cxx::__normal_iterator.36", align 8
  %3 = alloca %"struct.__gnu_cxx::__ops::_Val_comp_iter", align 1
  %4 = alloca %"struct.dap::Variable", align 8
  %5 = alloca %"class.__gnu_cxx::__normal_iterator.36", align 8
  %6 = alloca %"class.__gnu_cxx::__normal_iterator.36", align 8
  %7 = alloca ptr, align 8
  %8 = alloca i32, align 4
  %9 = getelementptr inbounds %"class.__gnu_cxx::__normal_iterator.36", ptr %2, i32 0, i32 0
  store ptr %0, ptr %9, align 8
  %10 = call noundef nonnull align 8 dereferenceable(352) ptr @_ZNK9__gnu_cxx17__normal_iteratorIPN3dap8VariableESt6vectorIS2_SaIS2_EEEdeEv(ptr noundef nonnull align 8 dereferenceable(8) %2) #4
  call void @_ZN3dap8VariableC2EOS0_(ptr noundef nonnull align 8 dereferenceable(352) %4, ptr noundef nonnull align 8 dereferenceable(352) %10)
  call void @llvm.memcpy.p0.p0.i64(ptr align 8 %5, ptr align 8 %2, i64 8, i1 false)
  %11 = call noundef nonnull align 8 dereferenceable(8) ptr @_ZN9__gnu_cxx17__normal_iteratorIPN3dap8VariableESt6vectorIS2_SaIS2_EEEmmEv(ptr noundef nonnull align 8 dereferenceable(8) %5) #4
  br label %12

12:                                               ; preds = %17, %1
  call void @llvm.memcpy.p0.p0.i64(ptr align 8 %6, ptr align 8 %5, i64 8, i1 false)
  %13 = getelementptr inbounds %"class.__gnu_cxx::__normal_iterator.36", ptr %6, i32 0, i32 0
  %14 = load ptr, ptr %13, align 8
  %15 = invoke noundef zeroext i1 @"_ZN9__gnu_cxx5__ops14_Val_comp_iterIZN10cmDebugger19cmDebuggerVariables22HandleVariablesRequestEvE3$_0EclIN3dap8VariableENS_17__normal_iteratorIPS8_St6vectorIS8_SaIS8_EEEEEEbRT_T0_"(ptr noundef nonnull align 1 dereferenceable(1) %3, ptr noundef nonnull align 8 dereferenceable(352) %4, ptr %14)
          to label %16 unwind label %22

16:                                               ; preds = %12
  br i1 %15, label %17, label %26

17:                                               ; preds = %16
  %18 = call noundef nonnull align 8 dereferenceable(352) ptr @_ZNK9__gnu_cxx17__normal_iteratorIPN3dap8VariableESt6vectorIS2_SaIS2_EEEdeEv(ptr noundef nonnull align 8 dereferenceable(8) %5) #4
  %19 = call noundef nonnull align 8 dereferenceable(352) ptr @_ZNK9__gnu_cxx17__normal_iteratorIPN3dap8VariableESt6vectorIS2_SaIS2_EEEdeEv(ptr noundef nonnull align 8 dereferenceable(8) %2) #4
  %20 = call noundef nonnull align 8 dereferenceable(352) ptr @_ZN3dap8VariableaSEOS0_(ptr noundef nonnull align 8 dereferenceable(352) %19, ptr noundef nonnull align 8 dereferenceable(352) %18) #4
  call void @llvm.memcpy.p0.p0.i64(ptr align 8 %2, ptr align 8 %5, i64 8, i1 false)
  %21 = call noundef nonnull align 8 dereferenceable(8) ptr @_ZN9__gnu_cxx17__normal_iteratorIPN3dap8VariableESt6vectorIS2_SaIS2_EEEmmEv(ptr noundef nonnull align 8 dereferenceable(8) %5) #4
  br label %12, !llvm.loop !23

22:                                               ; preds = %12
  %23 = landingpad { ptr, i32 }
          cleanup
  %24 = extractvalue { ptr, i32 } %23, 0
  store ptr %24, ptr %7, align 8
  %25 = extractvalue { ptr, i32 } %23, 1
  store i32 %25, ptr %8, align 4
  call void @_ZN3dap8VariableD2Ev(ptr noundef nonnull align 8 dereferenceable(352) %4) #4
  br label %29

26:                                               ; preds = %16
  %27 = call noundef nonnull align 8 dereferenceable(352) ptr @_ZNK9__gnu_cxx17__normal_iteratorIPN3dap8VariableESt6vectorIS2_SaIS2_EEEdeEv(ptr noundef nonnull align 8 dereferenceable(8) %2) #4
  %28 = call noundef nonnull align 8 dereferenceable(352) ptr @_ZN3dap8VariableaSEOS0_(ptr noundef nonnull align 8 dereferenceable(352) %27, ptr noundef nonnull align 8 dereferenceable(352) %4) #4
  call void @_ZN3dap8VariableD2Ev(ptr noundef nonnull align 8 dereferenceable(352) %4) #4
  ret void

29:                                               ; preds = %22
  %30 = load ptr, ptr %7, align 8
  %31 = load i32, ptr %8, align 4
  %32 = insertvalue { ptr, i32 } poison, ptr %30, 0
  %33 = insertvalue { ptr, i32 } %32, i32 %31, 1
  resume { ptr, i32 } %33
}