; Function Attrs: mustprogress uwtable
define internal fastcc void @"_ZSt25__unguarded_linear_insertIN9__gnu_cxx17__normal_iteratorIPN3dap8VariableESt6vectorIS3_SaIS3_EEEENS0_5__ops14_Val_comp_iterIZN10cmDebugger19cmDebuggerVariables22HandleVariablesRequestEvE3$_0EEEvT_T0_"(ptr nonnull %0) unnamed_addr #1 personality ptr @__gxx_personality_v0 {
  %2 = alloca %"struct.dap::Variable", align 8
  call void @_ZN3dap8VariableC2EOS0_(ptr noundef nonnull align 8 dereferenceable(352) %2, ptr noundef nonnull align 8 dereferenceable(352) %0)
  %3 = getelementptr inbounds i8, ptr %2, i64 96
  br label %4

4:                                                ; preds = %18, %1
  %.sroa.03.0 = phi ptr [ %0, %1 ], [ %.sroa.0.0, %18 ]
  %.sroa.0.0 = getelementptr inbounds i8, ptr %.sroa.03.0, i64 -352
  %5 = getelementptr inbounds i8, ptr %.sroa.03.0, i64 -256
  %6 = invoke noundef i32 @_ZNKSt7__cxx1112basic_stringIcSt11char_traitsIcESaIcEE7compareERKS4_(ptr noundef nonnull align 8 dereferenceable(32) %3, ptr noundef nonnull align 8 dereferenceable(32) %5)
          to label %"_ZN9__gnu_cxx5__ops14_Val_comp_iterIZN10cmDebugger19cmDebuggerVariables22HandleVariablesRequestEvE3$_0EclIN3dap8VariableENS_17__normal_iteratorIPS8_St6vectorIS8_SaIS8_EEEEEEbRT_T0_.exit" unwind label %7

7:                                                ; preds = %4
  %8 = landingpad { ptr, i32 }
          catch ptr null
  %9 = extractvalue { ptr, i32 } %8, 0
  call void @__clang_call_terminate(ptr %9) #20
  unreachable

"_ZN9__gnu_cxx5__ops14_Val_comp_iterIZN10cmDebugger19cmDebuggerVariables22HandleVariablesRequestEvE3$_0EclIN3dap8VariableENS_17__normal_iteratorIPS8_St6vectorIS8_SaIS8_EEEEEEbRT_T0_.exit": ; preds = %4
  %10 = icmp slt i32 %6, 0
  %11 = getelementptr inbounds i8, ptr %.sroa.03.0, i64 32
  %12 = getelementptr inbounds i8, ptr %.sroa.03.0, i64 40
  %13 = getelementptr inbounds i8, ptr %.sroa.03.0, i64 48
  %14 = getelementptr inbounds i8, ptr %.sroa.03.0, i64 56
  %15 = getelementptr inbounds i8, ptr %.sroa.03.0, i64 88
  %16 = getelementptr inbounds i8, ptr %.sroa.03.0, i64 96
  %17 = getelementptr inbounds i8, ptr %.sroa.03.0, i64 128
  br i1 %10, label %18, label %60

18:                                               ; preds = %"_ZN9__gnu_cxx5__ops14_Val_comp_iterIZN10cmDebugger19cmDebuggerVariables22HandleVariablesRequestEvE3$_0EclIN3dap8VariableENS_17__normal_iteratorIPS8_St6vectorIS8_SaIS8_EEEEEEbRT_T0_.exit"
  %19 = call noundef nonnull align 8 dereferenceable(32) ptr @_ZNSt7__cxx1112basic_stringIcSt11char_traitsIcESaIcEEaSEOS4_(ptr noundef nonnull align 8 dereferenceable(32) %.sroa.03.0, ptr noundef nonnull align 8 dereferenceable(32) %.sroa.0.0) #18
  %20 = getelementptr inbounds i8, ptr %.sroa.03.0, i64 -320
  %21 = load i8, ptr %20, align 8
  %22 = and i8 %21, 1
  store i8 %22, ptr %11, align 8
  %23 = getelementptr inbounds i8, ptr %.sroa.03.0, i64 -312
  %24 = load i64, ptr %23, align 8
  store i64 %24, ptr %12, align 8
  %25 = getelementptr inbounds i8, ptr %.sroa.03.0, i64 -304
  %26 = load i8, ptr %25, align 8
  %27 = and i8 %26, 1
  store i8 %27, ptr %13, align 8
  %28 = getelementptr inbounds i8, ptr %.sroa.03.0, i64 -296
  %29 = call noundef nonnull align 8 dereferenceable(32) ptr @_ZNSt7__cxx1112basic_stringIcSt11char_traitsIcESaIcEEaSEOS4_(ptr noundef nonnull align 8 dereferenceable(32) %14, ptr noundef nonnull align 8 dereferenceable(32) %28) #18
  %30 = getelementptr inbounds i8, ptr %.sroa.03.0, i64 -264
  %31 = load i8, ptr %30, align 8
  %32 = and i8 %31, 1
  store i8 %32, ptr %15, align 8
  %33 = call noundef nonnull align 8 dereferenceable(32) ptr @_ZNSt7__cxx1112basic_stringIcSt11char_traitsIcESaIcEEaSEOS4_(ptr noundef nonnull align 8 dereferenceable(32) %16, ptr noundef nonnull align 8 dereferenceable(32) %5) #18
  %34 = getelementptr inbounds i8, ptr %.sroa.03.0, i64 -224
  %35 = load i64, ptr %34, align 8
  store i64 %35, ptr %17, align 8
  %36 = getelementptr inbounds i8, ptr %.sroa.03.0, i64 -216
  %37 = load i8, ptr %36, align 8
  %38 = and i8 %37, 1
  %39 = getelementptr inbounds i8, ptr %.sroa.03.0, i64 136
  store i8 %38, ptr %39, align 8
  %40 = getelementptr inbounds i8, ptr %.sroa.03.0, i64 144
  %41 = getelementptr inbounds i8, ptr %.sroa.03.0, i64 -208
  %42 = call noundef nonnull align 8 dereferenceable(120) ptr @_ZN3dap24VariablePresentationHintaSEOS0_(ptr noundef nonnull align 8 dereferenceable(120) %40, ptr noundef nonnull align 8 dereferenceable(120) %41) #18
  %43 = getelementptr inbounds i8, ptr %.sroa.03.0, i64 -88
  %44 = load i8, ptr %43, align 8
  %45 = and i8 %44, 1
  %46 = getelementptr inbounds i8, ptr %.sroa.03.0, i64 264
  store i8 %45, ptr %46, align 8
  %47 = getelementptr inbounds i8, ptr %.sroa.03.0, i64 272
  %48 = getelementptr inbounds i8, ptr %.sroa.03.0, i64 -80
  %49 = call noundef nonnull align 8 dereferenceable(32) ptr @_ZNSt7__cxx1112basic_stringIcSt11char_traitsIcESaIcEEaSEOS4_(ptr noundef nonnull align 8 dereferenceable(32) %47, ptr noundef nonnull align 8 dereferenceable(32) %48) #18
  %50 = getelementptr inbounds i8, ptr %.sroa.03.0, i64 -48
  %51 = load i8, ptr %50, align 8
  %52 = and i8 %51, 1
  %53 = getelementptr inbounds i8, ptr %.sroa.03.0, i64 304
  store i8 %52, ptr %53, align 8
  %54 = getelementptr inbounds i8, ptr %.sroa.03.0, i64 312
  %55 = getelementptr inbounds i8, ptr %.sroa.03.0, i64 -40
  %56 = call noundef nonnull align 8 dereferenceable(32) ptr @_ZNSt7__cxx1112basic_stringIcSt11char_traitsIcESaIcEEaSEOS4_(ptr noundef nonnull align 8 dereferenceable(32) %54, ptr noundef nonnull align 8 dereferenceable(32) %55) #18
  %57 = getelementptr inbounds i8, ptr %.sroa.03.0, i64 344
  %58 = getelementptr inbounds i8, ptr %.sroa.03.0, i64 -8
  %59 = load i64, ptr %58, align 8
  store i64 %59, ptr %57, align 8
  br label %4, !llvm.loop !49

60:                                               ; preds = %"_ZN9__gnu_cxx5__ops14_Val_comp_iterIZN10cmDebugger19cmDebuggerVariables22HandleVariablesRequestEvE3$_0EclIN3dap8VariableENS_17__normal_iteratorIPS8_St6vectorIS8_SaIS8_EEEEEEbRT_T0_.exit"
  %61 = call noundef nonnull align 8 dereferenceable(32) ptr @_ZNSt7__cxx1112basic_stringIcSt11char_traitsIcESaIcEEaSEOS4_(ptr noundef nonnull align 8 dereferenceable(32) %.sroa.03.0, ptr noundef nonnull align 8 dereferenceable(32) %2) #18
  %62 = getelementptr inbounds i8, ptr %2, i64 32
  %63 = load i8, ptr %62, align 8
  %64 = and i8 %63, 1
  store i8 %64, ptr %11, align 8
  %65 = getelementptr inbounds i8, ptr %2, i64 40
  %66 = load i64, ptr %65, align 8
  store i64 %66, ptr %12, align 8
  %67 = getelementptr inbounds i8, ptr %2, i64 48
  %68 = load i8, ptr %67, align 8
  %69 = and i8 %68, 1
  store i8 %69, ptr %13, align 8
  %70 = getelementptr inbounds i8, ptr %2, i64 56
  %71 = call noundef nonnull align 8 dereferenceable(32) ptr @_ZNSt7__cxx1112basic_stringIcSt11char_traitsIcESaIcEEaSEOS4_(ptr noundef nonnull align 8 dereferenceable(32) %14, ptr noundef nonnull align 8 dereferenceable(32) %70) #18
  %72 = getelementptr inbounds i8, ptr %2, i64 88
  %73 = load i8, ptr %72, align 8
  %74 = and i8 %73, 1
  store i8 %74, ptr %15, align 8
  %75 = call noundef nonnull align 8 dereferenceable(32) ptr @_ZNSt7__cxx1112basic_stringIcSt11char_traitsIcESaIcEEaSEOS4_(ptr noundef nonnull align 8 dereferenceable(32) %16, ptr noundef nonnull align 8 dereferenceable(32) %3) #18
  %76 = getelementptr inbounds i8, ptr %2, i64 128
  %77 = load i64, ptr %76, align 8
  store i64 %77, ptr %17, align 8
  %78 = getelementptr inbounds i8, ptr %2, i64 136
  %79 = load i8, ptr %78, align 8
  %80 = and i8 %79, 1
  %81 = getelementptr inbounds i8, ptr %.sroa.03.0, i64 136
  store i8 %80, ptr %81, align 8
  %82 = getelementptr inbounds i8, ptr %.sroa.03.0, i64 144
  %83 = getelementptr inbounds i8, ptr %2, i64 144
  %84 = call noundef nonnull align 8 dereferenceable(120) ptr @_ZN3dap24VariablePresentationHintaSEOS0_(ptr noundef nonnull align 8 dereferenceable(120) %82, ptr noundef nonnull align 8 dereferenceable(120) %83) #18
  %85 = getelementptr inbounds i8, ptr %2, i64 264
  %86 = load i8, ptr %85, align 8
  %87 = and i8 %86, 1
  %88 = getelementptr inbounds i8, ptr %.sroa.03.0, i64 264
  store i8 %87, ptr %88, align 8
  %89 = getelementptr inbounds i8, ptr %.sroa.03.0, i64 272
  %90 = getelementptr inbounds i8, ptr %2, i64 272
  %91 = call noundef nonnull align 8 dereferenceable(32) ptr @_ZNSt7__cxx1112basic_stringIcSt11char_traitsIcESaIcEEaSEOS4_(ptr noundef nonnull align 8 dereferenceable(32) %89, ptr noundef nonnull align 8 dereferenceable(32) %90) #18
  %92 = getelementptr inbounds i8, ptr %2, i64 304
  %93 = load i8, ptr %92, align 8
  %94 = and i8 %93, 1
  %95 = getelementptr inbounds i8, ptr %.sroa.03.0, i64 304
  store i8 %94, ptr %95, align 8
  %96 = getelementptr inbounds i8, ptr %.sroa.03.0, i64 312
  %97 = getelementptr inbounds i8, ptr %2, i64 312
  %98 = call noundef nonnull align 8 dereferenceable(32) ptr @_ZNSt7__cxx1112basic_stringIcSt11char_traitsIcESaIcEEaSEOS4_(ptr noundef nonnull align 8 dereferenceable(32) %96, ptr noundef nonnull align 8 dereferenceable(32) %97) #18
  %99 = getelementptr inbounds i8, ptr %.sroa.03.0, i64 344
  %100 = getelementptr inbounds i8, ptr %2, i64 344
  %101 = load i64, ptr %100, align 8
  store i64 %101, ptr %99, align 8
  call void @_ZN3dap8VariableD2Ev(ptr noundef nonnull align 8 dereferenceable(352) %2) #18
  ret void
}